(dp1
S'output'
p2
S"<type 'exceptions.TypeError'> list indices must be integers, not str"
p3
sS'layer'
p4
S'/home/thealchemist/python/web2py/applications/chefitter/controllers/default.py'
p5
sS'code'
p6
S'# -*- coding: utf-8 -*-\n# this file is released under public domain and you can use without limitations\n\n#########################################################################\n## This is a sample controller\n## - index is the default action of any application\n## - user is required for authentication and authorization\n## - download is for downloading files uploaded in the db (does streaming)\n#########################################################################\n\ndef index():\n    """\n    example action using the internationalization operator T and flash\n    rendered by views/default/index.html or views/generic.html\n\n    if you need a simple wiki simply replace the two lines below with:\n    return auth.wiki()\n    """\n    response.flash = T("Hello World")\n    return dict(message=T(\'Welcome to web2py!\'))\n\n\ndef user():\n    """\n    exposes:\n    http://..../[app]/default/user/login\n    http://..../[app]/default/user/logout\n    http://..../[app]/default/user/register\n    http://..../[app]/default/user/profile\n    http://..../[app]/default/user/retrieve_password\n    http://..../[app]/default/user/change_password\n    http://..../[app]/default/user/bulk_register\n    use @auth.requires_login()\n        @auth.requires_membership(\'group name\')\n        @auth.requires_permission(\'read\',\'table name\',record_id)\n    to decorate functions that need access control\n    also notice there is http://..../[app]/appadmin/manage/auth to allow administrator to manage users\n    """\n    return dict(form=auth())\n\n\n@cache.action()\ndef download():\n    """\n    allows downloading of uploaded files\n    http://..../[app]/default/download/[filename]\n    """\n    return response.download(request, db)\n\n\ndef call():\n    """\n    exposes services. for example:\n    http://..../[app]/default/call/jsonrpc\n    decorate with @services.jsonrpc the functions to expose\n    supports xml, json, xmlrpc, jsonrpc, amfrpc, rss, csv\n    """\n    return service()\n\n@auth.requires_login()\ndef home():\n\tq=db.recipe.id>0\n\ta=db(q).select()\n\treturn dict(ans=a)\n\ndef home_likes():\n\tq=db.recipe.id>0\n\ta=db(q).select()\n\treturn dict(ans=a)\n\ndef upload_recipe():\n\tdb.recipe.likes.readable=False\n\tdb.recipe.likes.writable=False\n\tform=SQLFORM(db.recipe)\n\tif form.process().accepted:\n\t\tresponse.flash="done!"\n\t\tvar=form.vars.id\n\t\tr=db(db.recipe.id==var).select().first()\n\t\tr.update_record(likes=0)\n\telif form.process().errors:\n\t\tresponse.flash="try again."\n\treturn dict(form=form)\n\ndef download():\n\treturn response.download(request, db)\n\ndef update():\n\ti=request.args[0]\n\tq=db.recipe.id==i\n\tans=db(q).select(db.recipe.likes)\n\tans = ans["likes"]\n\tprint ans\n\tans = ans + 1\n\tq.update_record(likes=ans)\n\nresponse._vars=response._caller(update)\n'
p7
sS'snapshot'
p8
(dp9
sS'traceback'
p10
S'Traceback (most recent call last):\n  File "/home/thealchemist/python/web2py/gluon/restricted.py", line 227, in restricted\n    exec ccode in environment\n  File "/home/thealchemist/python/web2py/applications/chefitter/controllers/default.py", line 96, in <module>\n  File "/home/thealchemist/python/web2py/gluon/globals.py", line 412, in <lambda>\n    self._caller = lambda f: f()\n  File "/home/thealchemist/python/web2py/applications/chefitter/controllers/default.py", line 91, in update\n    ans = ans["likes"]\n  File "/home/thealchemist/python/web2py/gluon/packages/dal/pydal/objects.py", line 2550, in __getitem__\n    row = self.records[i]\nTypeError: list indices must be integers, not str\n'
p11
s.