(dp1
S'output'
p2
S''
sS'layer'
p3
S'Framework'
p4
sS'code'
p5
S''
sS'snapshot'
p6
(dp7
sS'traceback'
p8
S'Traceback (most recent call last):\n  File "/home/thealchemist/python/web2py/gluon/main.py", line 450, in wsgibase\n    serve_controller(request, response, session)\n  File "/home/thealchemist/python/web2py/gluon/main.py", line 192, in serve_controller\n    run_view_in(response._view_environment)\n  File "/home/thealchemist/python/web2py/gluon/compileapp.py", line 714, in run_view_in\n    context=environment)\n  File "/home/thealchemist/python/web2py/gluon/template.py", line 797, in parse_template\n    return str(TemplateParser(text, context=context, path=path, lexers=lexers, delimiters=delimiters))\n  File "/home/thealchemist/python/web2py/gluon/template.py", line 319, in __init__\n    self.parse(text)\n  File "/home/thealchemist/python/web2py/gluon/template.py", line 765, in parse\n    self.extend(extend)\n  File "/home/thealchemist/python/web2py/gluon/template.py", line 479, in extend\n    text = self._get_file_text(filename) or \'%sinclude%s\' % tuple(self.delimiters)\n  File "/home/thealchemist/python/web2py/gluon/template.py", line 439, in _get_file_text\n    filename = eval(filename, context)\n  File "<string>", line 1, in <module>\nNameError: name \'layout\' is not defined\n'
p9
s.