(dp1
S'output'
p2
S"<type 'exceptions.AttributeError'> 'DAL' object has no attribute 'prime'"
p3
sS'layer'
p4
S'/home/thealchemist/python/web2py/applications/chefitter/controllers/default.py'
p5
sS'code'
p6
S'# -*- coding: utf-8 -*-\n# this file is released under public domain and you can use without limitations\n\n#########################################################################\n## This is a sample controller\n## - index is the default action of any application\n## - user is required for authentication and authorization\n## - download is for downloading files uploaded in the db (does streaming)\n#########################################################################\n\ndef index():\n    """\n    example action using the internationalization operator T and flash\n    rendered by views/default/index.html or views/generic.html\n\n    if you need a simple wiki simply replace the two lines below with:\n    return auth.wiki()\n    """\n    response.flash = T("Hello World")\n    return dict(message=T(\'Welcome to web2py!\'))\n\n\ndef user():\n    """\n    exposes:\n    http://..../[app]/default/user/login\n    http://..../[app]/default/user/logout\n    http://..../[app]/default/user/register\n    http://..../[app]/default/user/profile\n    http://..../[app]/default/user/retrieve_password\n    http://..../[app]/default/user/change_password\n    http://..../[app]/default/user/bulk_register\n    use @auth.requires_login()\n        @auth.requires_membership(\'group name\')\n        @auth.requires_permission(\'read\',\'table name\',record_id)\n    to decorate functions that need access control\n    also notice there is http://..../[app]/appadmin/manage/auth to allow administrator to manage users\n    """\n    return dict(form=auth())\n\n\n@cache.action()\ndef download():\n    """\n    allows downloading of uploaded files\n    http://..../[app]/default/download/[filename]\n    """\n    return response.download(request, db)\n\n\ndef call():\n    """\n    exposes services. for example:\n    http://..../[app]/default/call/jsonrpc\n    decorate with @services.jsonrpc the functions to expose\n    supports xml, json, xmlrpc, jsonrpc, amfrpc, rss, csv\n    """\n    return service()\n\n@auth.requires_login()\ndef home():\n\tq=db.recipe.id>0\n\ta=db(q).select()\n\tif len(request.args): page=int(request.args[0])\n\telse: page=0\n\titems_per_page=15\n\tlimitby=(page*items_per_page,(page+1)*items_per_page+1)\n\trows=db().select(db.recipe.ALL,limitby=limitby)\n\treturn dict(rows=rows,page=page,items_per_page=items_per_page,ans=a)\n\ndef upload_recipe():\n\tdb.recipe.likes.readable=False\n\tdb.recipe.likes.writable=False\n\tform=SQLFORM(db.recipe)\n\tif form.process().accepted:\n\t\tresponse.flash="done!"\n\t\tvar=form.vars.id\n\t\tr=db(db.recipe.id==var).select().first()\n\t\tr.update_record(likes=0)\n\telif form.process().errors:\n\t\tresponse.flash="try again."\n\treturn dict(form=form)\n\ndef home_likes():\n\ti=request.args[0]\n\tq=db.recipe.id==i\n\tans=db(q).select()\n\tfor j in ans:\n\t\tm=j\n\t\tfinal = j["likes"] + 1\n\tprint final\n\tm.update_record(likes=final)\n\tb=db.recipe.id>0\n\ta=db(b).select()\n\tif len(request.args): page=int(request.args[0])\n\telse: page=0\n\titems_per_page=20\n\tlimitby=(page*items_per_page,(page+1)*items_per_page+1)\n\trows=db().select(db.prime.ALL,limitby=limitby)\n\treturn dict(rows=rows,page=page,items_per_page=items_per_page,ans=a)\n\ndef download():\n\treturn response.download(request, db)\n\nresponse._vars=response._caller(home_likes)\n'
p7
sS'snapshot'
p8
(dp9
sS'traceback'
p10
S'Traceback (most recent call last):\n  File "/home/thealchemist/python/web2py/gluon/restricted.py", line 227, in restricted\n    exec ccode in environment\n  File "/home/thealchemist/python/web2py/applications/chefitter/controllers/default.py", line 105, in <module>\n  File "/home/thealchemist/python/web2py/gluon/globals.py", line 412, in <lambda>\n    self._caller = lambda f: f()\n  File "/home/thealchemist/python/web2py/applications/chefitter/controllers/default.py", line 99, in home_likes\n    rows=db().select(db.prime.ALL,limitby=limitby)\n  File "/home/thealchemist/python/web2py/gluon/packages/dal/pydal/base.py", line 921, in __getattr__\n    return BasicStorage.__getattribute__(self, key)\nAttributeError: \'DAL\' object has no attribute \'prime\'\n'
p11
s.